; Function Attrs: mustprogress uwtable
define noundef ptr @_ZN6icu_7713ListFormatter14createInstanceERKNS_6LocaleE18UListFormatterType19UListFormatterWidthR10UErrorCode(ptr noundef nonnull align 8 dereferenceable(217) %0, i32 noundef %1, i32 noundef %2, ptr noundef nonnull align 4 dereferenceable(4) %3) local_unnamed_addr #1 align 2 personality ptr @__gxx_personality_v0 {
  switch i32 %1, label %_ZN6icu_7713ListFormatter14createInstanceERKNS_6LocaleEPKcR10UErrorCode.exit.sink.split [
    i32 0, label %5
    i32 1, label %7
    i32 2, label %9
  ]

5:                                                ; preds = %4
  %6 = icmp ult i32 %2, 3
  br i1 %6, label %switch.lookup, label %_ZN6icu_7713ListFormatter14createInstanceERKNS_6LocaleEPKcR10UErrorCode.exit.sink.split

7:                                                ; preds = %4
  %8 = icmp ult i32 %2, 3
  br i1 %8, label %switch.lookup, label %_ZN6icu_7713ListFormatter14createInstanceERKNS_6LocaleEPKcR10UErrorCode.exit.sink.split

9:                                                ; preds = %4
  %10 = icmp ult i32 %2, 3
  br i1 %10, label %switch.lookup, label %_ZN6icu_7713ListFormatter14createInstanceERKNS_6LocaleEPKcR10UErrorCode.exit.sink.split

switch.lookup:                                    ; preds = %9, %7, %5
  %switch.table._ZN6icu_7713ListFormatter14createInstanceERKNS_6LocaleE18UListFormatterType19UListFormatterWidthR10UErrorCode.6.sink = phi ptr [ @switch.table._ZN6icu_7713ListFormatter14createInstanceERKNS_6LocaleE18UListFormatterType19UListFormatterWidthR10UErrorCode, %5 ], [ @switch.table._ZN6icu_7713ListFormatter14createInstanceERKNS_6LocaleE18UListFormatterType19UListFormatterWidthR10UErrorCode.5, %7 ], [ @switch.table._ZN6icu_7713ListFormatter14createInstanceERKNS_6LocaleE18UListFormatterType19UListFormatterWidthR10UErrorCode.6, %9 ]
  %11 = sext i32 %2 to i64
  %switch.gep15 = getelementptr inbounds [3 x ptr], ptr %switch.table._ZN6icu_7713ListFormatter14createInstanceERKNS_6LocaleE18UListFormatterType19UListFormatterWidthR10UErrorCode.6.sink, i64 0, i64 %11
  %switch.load16 = load ptr, ptr %switch.gep15, align 8
  %12 = tail call noundef ptr @_ZN6icu_7713ListFormatter21getListFormatInternalERKNS_6LocaleEPKcR10UErrorCode(ptr noundef nonnull align 8 dereferenceable(217) %0, ptr noundef nonnull %switch.load16, ptr noundef nonnull align 4 dereferenceable(4) %3)
  %13 = load i32, ptr %3, align 4, !tbaa !13
  %14 = icmp slt i32 %13, 1
  br i1 %14, label %15, label %_ZN6icu_7713ListFormatter14createInstanceERKNS_6LocaleEPKcR10UErrorCode.exit

15:                                               ; preds = %switch.lookup
  %16 = tail call noundef ptr @_ZN6icu_777UMemorynwEm(i64 noundef 24) #19
  %17 = icmp eq ptr %16, null
  br i1 %17, label %_ZN6icu_7713ListFormatter14createInstanceERKNS_6LocaleEPKcR10UErrorCode.exit.sink.split, label %18

18:                                               ; preds = %15
  invoke void @_ZN6icu_7713ListFormatterC1EPKNS_18ListFormatInternalE(ptr noundef nonnull align 8 dereferenceable(24) %16, ptr noundef %12)
          to label %_ZN6icu_7713ListFormatter14createInstanceERKNS_6LocaleEPKcR10UErrorCode.exit unwind label %19

19:                                               ; preds = %18
  %20 = landingpad { ptr, i32 }
          cleanup
  tail call void @_ZN6icu_777UMemorydlEPv(ptr noundef nonnull %16) #19
  resume { ptr, i32 } %20

_ZN6icu_7713ListFormatter14createInstanceERKNS_6LocaleEPKcR10UErrorCode.exit.sink.split: ; preds = %9, %7, %5, %15, %4
  %.sink = phi i32 [ 1, %9 ], [ 1, %7 ], [ 1, %5 ], [ 1, %4 ], [ 7, %15 ]
  store i32 %.sink, ptr %3, align 4, !tbaa !13
  br label %_ZN6icu_7713ListFormatter14createInstanceERKNS_6LocaleEPKcR10UErrorCode.exit

_ZN6icu_7713ListFormatter14createInstanceERKNS_6LocaleEPKcR10UErrorCode.exit: ; preds = %_ZN6icu_7713ListFormatter14createInstanceERKNS_6LocaleEPKcR10UErrorCode.exit.sink.split, %18, %switch.lookup
  %.0 = phi ptr [ null, %switch.lookup ], [ %16, %18 ], [ null, %_ZN6icu_7713ListFormatter14createInstanceERKNS_6LocaleEPKcR10UErrorCode.exit.sink.split ]
  ret ptr %.0
}